; ModuleID = '2/13.c'
source_filename = "2/13.c"
target datalayout = "e-m:e-p270:32:32-p271:32:32-p272:64:64-i64:64-f80:128-n8:16:32:64-S128"
target triple = "x86_64-pc-linux-gnu"

%struct.anon = type { [20 x i8], i32 }

@.str = private unnamed_addr constant [3 x i8] c"%d\00", align 1
@.str.1 = private unnamed_addr constant [6 x i8] c"%d %s\00", align 1
@book = common dso_local global [1000 x %struct.anon] zeroinitializer, align 16
@.str.2 = private unnamed_addr constant [7 x i8] c"%c\0A%d\0A\00", align 1
@.str.3 = private unnamed_addr constant [4 x i8] c"%d\0A\00", align 1

; Function Attrs: noinline nounwind uwtable
define dso_local i32 @main() #0 {
  %1 = alloca i32, align 4
  %2 = alloca i32, align 4
  %3 = alloca i32, align 4
  %4 = alloca i32, align 4
  %5 = alloca i32, align 4
  %6 = alloca i32, align 4
  %7 = alloca [26 x i32], align 16
  store i32 0, i32* %1, align 4
  store i32 0, i32* %5, align 4
  store i32 0, i32* %6, align 4
  %8 = call i32 (i8*, ...) @__isoc99_scanf(i8* getelementptr inbounds ([3 x i8], [3 x i8]* @.str, i64 0, i64 0), i32* %2)
  %9 = bitcast [26 x i32]* %7 to i8*
  call void @llvm.memset.p0i8.i64(i8* align 16 %9, i8 0, i64 104, i1 false)
  store i32 0, i32* %3, align 4
  br label %10

10:                                               ; preds = %25, %0
  %11 = load i32, i32* %3, align 4
  %12 = load i32, i32* %2, align 4
  %13 = icmp slt i32 %11, %12
  br i1 %13, label %14, label %28

14:                                               ; preds = %10
  %15 = load i32, i32* %3, align 4
  %16 = sext i32 %15 to i64
  %17 = getelementptr inbounds [1000 x %struct.anon], [1000 x %struct.anon]* @book, i64 0, i64 %16
  %18 = getelementptr inbounds %struct.anon, %struct.anon* %17, i32 0, i32 1
  %19 = load i32, i32* %3, align 4
  %20 = sext i32 %19 to i64
  %21 = getelementptr inbounds [1000 x %struct.anon], [1000 x %struct.anon]* @book, i64 0, i64 %20
  %22 = getelementptr inbounds %struct.anon, %struct.anon* %21, i32 0, i32 0
  %23 = getelementptr inbounds [20 x i8], [20 x i8]* %22, i64 0, i64 0
  %24 = call i32 (i8*, ...) @__isoc99_scanf(i8* getelementptr inbounds ([6 x i8], [6 x i8]* @.str.1, i64 0, i64 0), i32* %18, i8* %23)
  br label %25

25:                                               ; preds = %14
  %26 = load i32, i32* %3, align 4
  %27 = add nsw i32 %26, 1
  store i32 %27, i32* %3, align 4
  br label %10

28:                                               ; preds = %10
  store i32 0, i32* %3, align 4
  br label %29

29:                                               ; preds = %60, %28
  %30 = load i32, i32* %3, align 4
  %31 = load i32, i32* %2, align 4
  %32 = icmp slt i32 %30, %31
  br i1 %32, label %33, label %63

33:                                               ; preds = %29
  store i32 0, i32* %4, align 4
  br label %34

34:                                               ; preds = %56, %33
  %35 = load i32, i32* %4, align 4
  %36 = icmp slt i32 %35, 26
  br i1 %36, label %37, label %59

37:                                               ; preds = %34
  %38 = load i32, i32* %3, align 4
  %39 = sext i32 %38 to i64
  %40 = getelementptr inbounds [1000 x %struct.anon], [1000 x %struct.anon]* @book, i64 0, i64 %39
  %41 = getelementptr inbounds %struct.anon, %struct.anon* %40, i32 0, i32 0
  %42 = getelementptr inbounds [20 x i8], [20 x i8]* %41, i64 0, i64 0
  %43 = load i32, i32* %4, align 4
  %44 = add nsw i32 65, %43
  %45 = call i8* @strchr(i8* %42, i32 %44) #4
  %46 = icmp ne i8* %45, null
  br i1 %46, label %47, label %53

47:                                               ; preds = %37
  %48 = load i32, i32* %4, align 4
  %49 = sext i32 %48 to i64
  %50 = getelementptr inbounds [26 x i32], [26 x i32]* %7, i64 0, i64 %49
  %51 = load i32, i32* %50, align 4
  %52 = add nsw i32 %51, 1
  store i32 %52, i32* %50, align 4
  br label %54

53:                                               ; preds = %37
  br label %54

54:                                               ; preds = %53, %47
  %55 = phi i32 [ %51, %47 ], [ 0, %53 ]
  br label %56

56:                                               ; preds = %54
  %57 = load i32, i32* %4, align 4
  %58 = add nsw i32 %57, 1
  store i32 %58, i32* %4, align 4
  br label %34

59:                                               ; preds = %34
  br label %60

60:                                               ; preds = %59
  %61 = load i32, i32* %3, align 4
  %62 = add nsw i32 %61, 1
  store i32 %62, i32* %3, align 4
  br label %29

63:                                               ; preds = %29
  store i32 0, i32* %4, align 4
  br label %64

64:                                               ; preds = %81, %63
  %65 = load i32, i32* %4, align 4
  %66 = icmp slt i32 %65, 26
  br i1 %66, label %67, label %84

67:                                               ; preds = %64
  %68 = load i32, i32* %4, align 4
  %69 = sext i32 %68 to i64
  %70 = getelementptr inbounds [26 x i32], [26 x i32]* %7, i64 0, i64 %69
  %71 = load i32, i32* %70, align 4
  %72 = load i32, i32* %5, align 4
  %73 = icmp sgt i32 %71, %72
  br i1 %73, label %74, label %80

74:                                               ; preds = %67
  %75 = load i32, i32* %4, align 4
  %76 = sext i32 %75 to i64
  %77 = getelementptr inbounds [26 x i32], [26 x i32]* %7, i64 0, i64 %76
  %78 = load i32, i32* %77, align 4
  store i32 %78, i32* %5, align 4
  %79 = load i32, i32* %4, align 4
  store i32 %79, i32* %6, align 4
  br label %80

80:                                               ; preds = %74, %67
  br label %81

81:                                               ; preds = %80
  %82 = load i32, i32* %4, align 4
  %83 = add nsw i32 %82, 1
  store i32 %83, i32* %4, align 4
  br label %64

84:                                               ; preds = %64
  %85 = load i32, i32* %6, align 4
  %86 = add nsw i32 65, %85
  %87 = load i32, i32* %6, align 4
  %88 = sext i32 %87 to i64
  %89 = getelementptr inbounds [26 x i32], [26 x i32]* %7, i64 0, i64 %88
  %90 = load i32, i32* %89, align 4
  %91 = call i32 (i8*, ...) @printf(i8* getelementptr inbounds ([7 x i8], [7 x i8]* @.str.2, i64 0, i64 0), i32 %86, i32 %90)
  store i32 0, i32* %3, align 4
  br label %92

92:                                               ; preds = %116, %84
  %93 = load i32, i32* %3, align 4
  %94 = load i32, i32* %2, align 4
  %95 = icmp slt i32 %93, %94
  br i1 %95, label %96, label %119

96:                                               ; preds = %92
  %97 = load i32, i32* %3, align 4
  %98 = sext i32 %97 to i64
  %99 = getelementptr inbounds [1000 x %struct.anon], [1000 x %struct.anon]* @book, i64 0, i64 %98
  %100 = getelementptr inbounds %struct.anon, %struct.anon* %99, i32 0, i32 0
  %101 = getelementptr inbounds [20 x i8], [20 x i8]* %100, i64 0, i64 0
  %102 = load i32, i32* %6, align 4
  %103 = add nsw i32 65, %102
  %104 = call i8* @strchr(i8* %101, i32 %103) #4
  %105 = icmp ne i8* %104, null
  br i1 %105, label %106, label %113

106:                                              ; preds = %96
  %107 = load i32, i32* %3, align 4
  %108 = sext i32 %107 to i64
  %109 = getelementptr inbounds [1000 x %struct.anon], [1000 x %struct.anon]* @book, i64 0, i64 %108
  %110 = getelementptr inbounds %struct.anon, %struct.anon* %109, i32 0, i32 1
  %111 = load i32, i32* %110, align 4
  %112 = call i32 (i8*, ...) @printf(i8* getelementptr inbounds ([4 x i8], [4 x i8]* @.str.3, i64 0, i64 0), i32 %111)
  br label %114

113:                                              ; preds = %96
  br label %114

114:                                              ; preds = %113, %106
  %115 = phi i32 [ %112, %106 ], [ 0, %113 ]
  br label %116

116:                                              ; preds = %114
  %117 = load i32, i32* %3, align 4
  %118 = add nsw i32 %117, 1
  store i32 %118, i32* %3, align 4
  br label %92

119:                                              ; preds = %92
  ret i32 0
}

declare dso_local i32 @__isoc99_scanf(i8*, ...) #1

; Function Attrs: argmemonly nounwind willreturn
declare void @llvm.memset.p0i8.i64(i8* nocapture writeonly, i8, i64, i1 immarg) #2

; Function Attrs: nounwind readonly
declare dso_local i8* @strchr(i8*, i32) #3

declare dso_local i32 @printf(i8*, ...) #1


!llvm.module.flags = !{!0}
!llvm.ident = !{!1}

!0 = !{i32 1, !"wchar_size", i32 4}
!1 = !{!"clang version 10.0.0-4ubuntu1 "}
